target datalayout = "e-m:e-p270:32:32-p271:32:32-p272:64:64-i64:64-i128:128-f80:128-n8:16:32:64-S128"
target triple = "x86_64-pc-linux-gnu"

%struct.TCGHelperInfo = type { ptr, ptr, i64, i64, [14 x %struct.TCGCallArgumentLoc] }
%struct.TCGCallArgumentLoc = type { i32 }
%struct.TCGContext = type { ptr, ptr, ptr, ptr, ptr, i32, i32, i32, i32, i32, i32, i32, i8, i8, i8, i32, i32, i64, i64, i64, ptr, ptr, ptr, ptr, ptr, i64, ptr, ptr, ptr, ptr, %struct.anon, ptr, ptr, ptr, ptr, ptr, [6 x ptr], [6 x %struct.TCGTempSet], [512 x %struct.TCGTemp], %union.anon, %union.anon, %struct.anon.0, ptr, [32 x ptr], [512 x i16], ptr, [1 x %struct.__jmp_buf_tag] }
%struct.anon = type { ptr, ptr }
%struct.TCGTempSet = type { [8 x i64] }
%struct.TCGTemp = type { i64, i64, ptr, i64, ptr, i64, ptr }
%union.anon = type { %struct.QTailQLink }
%struct.QTailQLink = type { ptr, ptr }
%struct.anon.0 = type { ptr, ptr }
%struct.__jmp_buf_tag = type { [8 x i64], i32, %struct.__sigset_t }
%struct.__sigset_t = type { [16 x i64] }
%struct.TranslationBlock = type { i64, i64, i32, i32, i16, i16, %struct.tb_tc, %struct.IntervalTreeNode, %struct.QemuSpin, [2 x i16], [2 x i16], [2 x i64], i64, [2 x i64], [2 x i64] }
%struct.tb_tc = type { ptr, i64 }
%struct.IntervalTreeNode = type { %struct.RBNode, i64, i64, i64 }
%struct.RBNode = type { i64, ptr, ptr }
%struct.QemuSpin = type { i32 }

@tcg_ctx = external thread_local global ptr, align 8
@tcg_env = external global ptr, align 8
@helper_info_exit_atomic = external global %struct.TCGHelperInfo, align 8

; Function Attrs: inlinehint nounwind sspstrong uwtable
define internal ptr @tcgv_i32_temp(ptr noundef %0) #5 {
  %2 = alloca ptr, align 8
  store ptr %0, ptr %2, align 8
  %3 = call align 8 ptr @llvm.threadlocal.address.p0(ptr align 8 @tcg_ctx)
  %4 = load ptr, ptr %3, align 8
  %5 = load ptr, ptr %2, align 8
  %6 = ptrtoint ptr %5 to i64
  %7 = getelementptr inbounds nuw i8, ptr %4, i64 %6
  ret ptr %7
}

; Function Attrs: inlinehint nounwind sspstrong uwtable
define internal i64 @temp_idx(ptr noundef %0) #5 {
  %2 = alloca ptr, align 8
  store ptr %0, ptr %2, align 8
  %3 = load ptr, ptr %2, align 8
  %4 = call align 8 ptr @llvm.threadlocal.address.p0(ptr align 8 @tcg_ctx)
  %5 = load ptr, ptr %4, align 8
  %6 = getelementptr inbounds nuw %struct.TCGContext, ptr %5, i32 0, i32 38
  %7 = getelementptr inbounds [512 x %struct.TCGTemp], ptr %6, i64 0, i64 0
  %8 = ptrtoint ptr %3 to i64
  %9 = ptrtoint ptr %7 to i64
  %10 = sub i64 %8, %9
  %11 = sdiv exact i64 %10, 56
  ret i64 %11
}

; Function Attrs: inlinehint nounwind sspstrong uwtable
define internal ptr @tcgv_i128_temp(ptr noundef %0) #5 {
  %2 = alloca ptr, align 8
  store ptr %0, ptr %2, align 8
  %3 = load ptr, ptr %2, align 8
  %4 = call ptr @tcgv_i32_temp(ptr noundef %3)
  ret ptr %4
}

; Function Attrs: inlinehint nounwind sspstrong uwtable
define internal ptr @tcgv_ptr_temp(ptr noundef %0) #5 {
  %2 = alloca ptr, align 8
  store ptr %0, ptr %2, align 8
  %3 = load ptr, ptr %2, align 8
  %4 = call ptr @tcgv_i32_temp(ptr noundef %3)
  ret ptr %4
}

; Function Attrs: inlinehint nounwind sspstrong uwtable
define internal ptr @temp_tcgv_i64(ptr noundef %0) #5 {
  %2 = alloca ptr, align 8
  store ptr %0, ptr %2, align 8
  %3 = load ptr, ptr %2, align 8
  %4 = call ptr @temp_tcgv_i32(ptr noundef %3)
  ret ptr %4
}

; Function Attrs: inlinehint nounwind sspstrong uwtable
define internal ptr @temp_tcgv_i32(ptr noundef %0) #5 {
  %2 = alloca ptr, align 8
  store ptr %0, ptr %2, align 8
  %3 = load ptr, ptr %2, align 8
  %4 = call i64 @temp_idx(ptr noundef %3)
  %5 = load ptr, ptr %2, align 8
  %6 = call align 8 ptr @llvm.threadlocal.address.p0(ptr align 8 @tcg_ctx)
  %7 = load ptr, ptr %6, align 8
  %8 = ptrtoint ptr %5 to i64
  %9 = ptrtoint ptr %7 to i64
  %10 = sub i64 %8, %9
  %11 = inttoptr i64 %10 to ptr
  ret ptr %11
}

; Function Attrs: inlinehint nounwind sspstrong uwtable
define internal ptr @TCGV128_HIGH(ptr noundef %0) #5 {
  %2 = alloca ptr, align 8
  %3 = alloca i32, align 4
  store ptr %0, ptr %2, align 8
  call void @llvm.lifetime.start.p0(i64 4, ptr %3) #7
  store i32 1, ptr %3, align 4
  %4 = load ptr, ptr %2, align 8
  %5 = call ptr @tcgv_i128_temp(ptr noundef %4)
  %6 = load i32, ptr %3, align 4
  %7 = sext i32 %6 to i64
  %8 = getelementptr inbounds %struct.TCGTemp, ptr %5, i64 %7
  %9 = call ptr @temp_tcgv_i64(ptr noundef %8)
  call void @llvm.lifetime.end.p0(i64 4, ptr %3) #7
  ret ptr %9
}

; Function Attrs: inlinehint nounwind sspstrong uwtable
define internal ptr @TCGV128_LOW(ptr noundef %0) #5 {
  %2 = alloca ptr, align 8
  %3 = alloca i32, align 4
  store ptr %0, ptr %2, align 8
  call void @llvm.lifetime.start.p0(i64 4, ptr %3) #7
  store i32 0, ptr %3, align 4
  %4 = load ptr, ptr %2, align 8
  %5 = call ptr @tcgv_i128_temp(ptr noundef %4)
  %6 = load i32, ptr %3, align 4
  %7 = sext i32 %6 to i64
  %8 = getelementptr inbounds %struct.TCGTemp, ptr %5, i64 %7
  %9 = call ptr @temp_tcgv_i64(ptr noundef %8)
  call void @llvm.lifetime.end.p0(i64 4, ptr %3) #7
  ret ptr %9
}

; Function Attrs: inlinehint nounwind sspstrong uwtable
define internal void @gen_helper_exit_atomic(ptr noundef %0) #5 {
  %2 = alloca ptr, align 8
  store ptr %0, ptr %2, align 8
  %3 = load ptr, ptr @helper_info_exit_atomic, align 8
  %4 = load ptr, ptr %2, align 8
  %5 = call ptr @tcgv_ptr_temp(ptr noundef %4)
  call void @tcg_gen_call1(ptr noundef %3, ptr noundef @helper_info_exit_atomic, ptr noundef null, ptr noundef %5)
  ret void
}

; Function Attrs: nounwind sspstrong uwtable
define internal void @maybe_free_addr64(ptr noundef %0) #0 {
  %2 = alloca ptr, align 8
  store ptr %0, ptr %2, align 8
  %3 = call align 8 ptr @llvm.threadlocal.address.p0(ptr align 8 @tcg_ctx)
  %4 = load ptr, ptr %3, align 8
  %5 = getelementptr inbounds nuw %struct.TCGContext, ptr %4, i32 0, i32 10
  %6 = load i32, ptr %5, align 4
  %7 = icmp eq i32 %6, 0
  br i1 %7, label %8, label %10

8:                                                ; preds = %1
  %9 = load ptr, ptr %2, align 8
  call void @tcg_temp_free_i64(ptr noundef %9)
  br label %10

10:                                               ; preds = %8, %1
  ret void
}

; Function Attrs: nounwind sspstrong uwtable
define internal ptr @maybe_extend_addr64(ptr noundef %0) #0 {
  %2 = alloca ptr, align 8
  %3 = alloca ptr, align 8
  %4 = alloca ptr, align 8
  store ptr %0, ptr %3, align 8
  %5 = call align 8 ptr @llvm.threadlocal.address.p0(ptr align 8 @tcg_ctx)
  %6 = load ptr, ptr %5, align 8
  %7 = getelementptr inbounds nuw %struct.TCGContext, ptr %6, i32 0, i32 10
  %8 = load i32, ptr %7, align 4
  %9 = icmp eq i32 %8, 0
  br i1 %9, label %10, label %16

10:                                               ; preds = %1
  call void @llvm.lifetime.start.p0(i64 8, ptr %4) #7
  %11 = call ptr @tcg_temp_ebb_new_i64()
  store ptr %11, ptr %4, align 8
  %12 = load ptr, ptr %4, align 8
  %13 = load ptr, ptr %3, align 8
  %14 = call ptr @temp_tcgv_i32(ptr noundef %13)
  call void @tcg_gen_extu_i32_i64(ptr noundef %12, ptr noundef %14)
  %15 = load ptr, ptr %4, align 8
  store ptr %15, ptr %2, align 8
  call void @llvm.lifetime.end.p0(i64 8, ptr %4) #7
  br label %19

16:                                               ; preds = %1
  %17 = load ptr, ptr %3, align 8
  %18 = call ptr @temp_tcgv_i64(ptr noundef %17)
  store ptr %18, ptr %2, align 8
  br label %19

19:                                               ; preds = %16, %10
  %20 = load ptr, ptr %2, align 8
  ret ptr %20
}

; Function Attrs: inlinehint nounwind sspstrong uwtable
define internal i32 @make_memop_idx(i32 noundef %0, i32 noundef %1) #5 {
  %3 = alloca i32, align 4
  %4 = alloca i32, align 4
  store i32 %0, ptr %3, align 4
  store i32 %1, ptr %4, align 4
  %5 = load i32, ptr %3, align 4
  %6 = shl i32 %5, 4
  %7 = load i32, ptr %4, align 4
  %8 = or i32 %6, %7
  ret i32 %8
}

; Function Attrs: nounwind sspstrong uwtable
define internal void @tcg_gen_atomic_cmpxchg_i128_int(ptr noundef %0, ptr noundef %1, ptr noundef %2, ptr noundef %3, i64 noundef %4, i32 noundef %5) #0 {
  %7 = alloca ptr, align 8
  %8 = alloca ptr, align 8
  %9 = alloca ptr, align 8
  %10 = alloca ptr, align 8
  %11 = alloca i64, align 8
  %12 = alloca i32, align 4
  %13 = alloca ptr, align 8
  %14 = alloca i32, align 4
  %15 = alloca i32, align 4
  %16 = alloca ptr, align 8
  store ptr %0, ptr %7, align 8
  store ptr %1, ptr %8, align 8
  store ptr %2, ptr %9, align 8
  store ptr %3, ptr %10, align 8
  store i64 %4, ptr %11, align 8
  store i32 %5, ptr %12, align 4
  call void @llvm.lifetime.start.p0(i64 8, ptr %13) #7
  store ptr null, ptr %13, align 8, !annotation !4
  %17 = call align 8 ptr @llvm.threadlocal.address.p0(ptr align 8 @tcg_ctx)
  %18 = load ptr, ptr %17, align 8
  %19 = getelementptr inbounds nuw %struct.TCGContext, ptr %18, i32 0, i32 21
  %20 = load ptr, ptr %19, align 8
  %21 = getelementptr inbounds nuw %struct.TranslationBlock, ptr %20, i32 0, i32 3
  %22 = load i32, ptr %21, align 4
  %23 = and i32 %22, 32768
  %24 = icmp ne i32 %23, 0
  br i1 %24, label %32, label %25

25:                                               ; preds = %6
  %26 = load ptr, ptr %7, align 8
  %27 = load ptr, ptr %8, align 8
  %28 = load ptr, ptr %9, align 8
  %29 = load ptr, ptr %10, align 8
  %30 = load i64, ptr %11, align 8
  %31 = load i32, ptr %12, align 4
  call void @tcg_gen_nonatomic_cmpxchg_i128_int(ptr noundef %26, ptr noundef %27, ptr noundef %28, ptr noundef %29, i64 noundef %30, i32 noundef %31)
  store i32 1, ptr %14, align 4
  br label %62

32:                                               ; preds = %6
  %33 = load i32, ptr %12, align 4
  %34 = and i32 %33, 23
  %35 = zext i32 %34 to i64
  %36 = getelementptr inbounds nuw [24 x ptr], ptr @table_cmpxchg, i64 0, i64 %35
  %37 = load ptr, ptr %36, align 8
  store ptr %37, ptr %13, align 8
  %38 = load ptr, ptr %13, align 8
  %39 = icmp ne ptr %38, null
  br i1 %39, label %40, label %56

40:                                               ; preds = %32
  call void @llvm.lifetime.start.p0(i64 4, ptr %15) #7
  %41 = load i32, ptr %12, align 4
  %42 = load i64, ptr %11, align 8
  %43 = trunc i64 %42 to i32
  %44 = call i32 @make_memop_idx(i32 noundef %41, i32 noundef %43)
  store i32 %44, ptr %15, align 4
  call void @llvm.lifetime.start.p0(i64 8, ptr %16) #7
  %45 = load ptr, ptr %8, align 8
  %46 = call ptr @maybe_extend_addr64(ptr noundef %45)
  store ptr %46, ptr %16, align 8
  %47 = load ptr, ptr %13, align 8
  %48 = load ptr, ptr %7, align 8
  %49 = load ptr, ptr @tcg_env, align 8
  %50 = load ptr, ptr %16, align 8
  %51 = load ptr, ptr %9, align 8
  %52 = load ptr, ptr %10, align 8
  %53 = load i32, ptr %15, align 4
  %54 = call ptr @tcg_constant_i32(i32 noundef %53)
  call void %47(ptr noundef %48, ptr noundef %49, ptr noundef %50, ptr noundef %51, ptr noundef %52, ptr noundef %54)
  %55 = load ptr, ptr %16, align 8
  call void @maybe_free_addr64(ptr noundef %55)
  store i32 1, ptr %14, align 4
  call void @llvm.lifetime.end.p0(i64 8, ptr %16) #7
  call void @llvm.lifetime.end.p0(i64 4, ptr %15) #7
  br label %62

56:                                               ; preds = %32
  %57 = load ptr, ptr @tcg_env, align 8
  call void @gen_helper_exit_atomic(ptr noundef %57)
  %58 = load ptr, ptr %7, align 8
  %59 = call ptr @TCGV128_LOW(ptr noundef %58)
  call void @tcg_gen_movi_i64(ptr noundef %59, i64 noundef 0)
  %60 = load ptr, ptr %7, align 8
  %61 = call ptr @TCGV128_HIGH(ptr noundef %60)
  call void @tcg_gen_movi_i64(ptr noundef %61, i64 noundef 0)
  store i32 0, ptr %14, align 4
  br label %62

62:                                               ; preds = %56, %40, %25
  call void @llvm.lifetime.end.p0(i64 8, ptr %13) #7
  %63 = load i32, ptr %14, align 4
  switch i32 %63, label %65 [
    i32 0, label %64
    i32 1, label %64
  ]

64:                                               ; preds = %62, %62
  ret void

65:                                               ; preds = %62
  unreachable
}

; Function Attrs: nounwind sspstrong uwtable
define dso_local void @tcg_gen_atomic_cmpxchg_i128_chk(ptr noundef %0, ptr noundef %1, ptr noundef %2, ptr noundef %3, i64 noundef %4, i32 noundef %5, i32 noundef %6) #0 {
  %8 = alloca ptr, align 8
  %9 = alloca ptr, align 8
  %10 = alloca ptr, align 8
  %11 = alloca ptr, align 8
  %12 = alloca i64, align 8
  %13 = alloca i32, align 4
  %14 = alloca i32, align 4
  store ptr %0, ptr %8, align 8
  store ptr %1, ptr %9, align 8
  store ptr %2, ptr %10, align 8
  store ptr %3, ptr %11, align 8
  store i64 %4, ptr %12, align 8
  store i32 %5, ptr %13, align 4
  store i32 %6, ptr %14, align 4
  br label %15

15:                                               ; preds = %7
  %16 = load i32, ptr %14, align 4
  %17 = call align 8 ptr @llvm.threadlocal.address.p0(ptr align 8 @tcg_ctx)
  %18 = load ptr, ptr %17, align 8
  %19 = getelementptr inbounds nuw %struct.TCGContext, ptr %18, i32 0, i32 10
  %20 = load i32, ptr %19, align 4
  %21 = icmp eq i32 %16, %20
  br i1 %21, label %23, label %22

22:                                               ; preds = %15
  unreachable

23:                                               ; preds = %15
  br label %24

24:                                               ; preds = %23
  br label %25

25:                                               ; preds = %24
  %26 = load i32, ptr %13, align 4
  %27 = and i32 %26, 15
  %28 = icmp eq i32 %27, 4
  br i1 %28, label %30, label %29

29:                                               ; preds = %25
  unreachable

30:                                               ; preds = %25
  br label %31

31:                                               ; preds = %30
  %32 = load ptr, ptr %8, align 8
  %33 = load ptr, ptr %9, align 8
  %34 = load ptr, ptr %10, align 8
  %35 = load ptr, ptr %11, align 8
  %36 = load i64, ptr %12, align 8
  %37 = load i32, ptr %13, align 4
  call void @tcg_gen_atomic_cmpxchg_i128_int(ptr noundef %32, ptr noundef %33, ptr noundef %34, ptr noundef %35, i64 noundef %36, i32 noundef %37)
  ret void
}