; Function Attrs: nounwind sspstrong uwtable
define dso_local void @tcg_gen_atomic_cmpxchg_i128_chk(ptr noundef %0, ptr noundef %1, ptr noundef %2, ptr noundef %3, i64 noundef %4, i32 noundef %5, i32 noundef %6) local_unnamed_addr #0 {
  %8 = tail call align 8 ptr @llvm.threadlocal.address.p0(ptr align 8 @tcg_ctx)
  %9 = load ptr, ptr %8, align 8
  %10 = getelementptr inbounds nuw i8, ptr %9, i64 60
  %11 = load i32, ptr %10, align 4
  %12 = icmp eq i32 %6, %11
  tail call void @llvm.assume(i1 %12)
  %13 = and i32 %5, 15
  %14 = icmp eq i32 %13, 4
  tail call void @llvm.assume(i1 %14)
  %15 = getelementptr inbounds nuw i8, ptr %9, i64 112
  %16 = load ptr, ptr %15, align 8
  %17 = getelementptr inbounds nuw i8, ptr %16, i64 20
  %18 = load i32, ptr %17, align 4
  %19 = and i32 %18, 32768
  %.not.i = icmp eq i32 %19, 0
  br i1 %.not.i, label %20, label %21

20:                                               ; preds = %7
  tail call fastcc void @tcg_gen_nonatomic_cmpxchg_i128_int(ptr noundef %0, ptr noundef %1, ptr noundef %2, ptr noundef %3, i64 noundef %4, i32 noundef %5)
  br label %tcg_gen_atomic_cmpxchg_i128_int.exit

21:                                               ; preds = %7
  %22 = and i32 %5, 20
  %23 = zext nneg i32 %22 to i64
  %24 = getelementptr inbounds nuw [24 x ptr], ptr @table_cmpxchg, i64 0, i64 %23
  %25 = load ptr, ptr %24, align 16
  %26 = trunc i64 %4 to i32
  %27 = shl i32 %5, 4
  %28 = or i32 %27, %26
  %29 = icmp eq i32 %6, 0
  br i1 %29, label %30, label %37

30:                                               ; preds = %21
  %31 = tail call ptr @tcg_temp_ebb_new_i64() #6
  %32 = load ptr, ptr %8, align 8
  %33 = ptrtoint ptr %1 to i64
  %34 = ptrtoint ptr %32 to i64
  %35 = sub i64 %33, %34
  %36 = inttoptr i64 %35 to ptr
  tail call void @tcg_gen_extu_i32_i64(ptr noundef %31, ptr noundef %36) #6
  br label %maybe_extend_addr64.exit.i

37:                                               ; preds = %21
  %38 = ptrtoint ptr %1 to i64
  %39 = ptrtoint ptr %9 to i64
  %40 = sub i64 %38, %39
  %41 = inttoptr i64 %40 to ptr
  br label %maybe_extend_addr64.exit.i

maybe_extend_addr64.exit.i:                       ; preds = %37, %30
  %.0.i.i = phi ptr [ %31, %30 ], [ %41, %37 ]
  %42 = load ptr, ptr @tcg_env, align 8
  %43 = tail call ptr @tcg_constant_i32(i32 noundef %28) #6
  tail call void %25(ptr noundef %0, ptr noundef %42, ptr noundef %.0.i.i, ptr noundef %2, ptr noundef %3, ptr noundef %43) #6
  %44 = load ptr, ptr %8, align 8
  %45 = getelementptr inbounds nuw i8, ptr %44, i64 60
  %46 = load i32, ptr %45, align 4
  %47 = icmp eq i32 %46, 0
  br i1 %47, label %48, label %tcg_gen_atomic_cmpxchg_i128_int.exit

48:                                               ; preds = %maybe_extend_addr64.exit.i
  tail call void @tcg_temp_free_i64(ptr noundef %.0.i.i) #6
  br label %tcg_gen_atomic_cmpxchg_i128_int.exit

tcg_gen_atomic_cmpxchg_i128_int.exit:             ; preds = %20, %maybe_extend_addr64.exit.i, %48
  ret void
}